; Function Attrs: mustprogress uwtable
define void @_ZN7testing19TestPartResultArray6AppendERKNS_14TestPartResultE(ptr noundef nonnull align 8 dereferenceable(24) %0, ptr noundef nonnull align 8 dereferenceable(112) %1) local_unnamed_addr #3 align 2 {
  %3 = getelementptr inbounds nuw i8, ptr %0, i64 8
  %4 = load ptr, ptr %3, align 8, !tbaa !947
  %5 = getelementptr inbounds nuw i8, ptr %0, i64 16
  %6 = load ptr, ptr %5, align 8, !tbaa !948
  %.not.i = icmp eq ptr %4, %6
  br i1 %.not.i, label %10, label %7

7:                                                ; preds = %2
  tail call void @_ZN7testing14TestPartResultC2ERKS0_(ptr noundef nonnull align 8 dereferenceable(112) %4, ptr noundef nonnull align 8 dereferenceable(112) %1)
  %8 = load ptr, ptr %3, align 8, !tbaa !947
  %9 = getelementptr inbounds nuw i8, ptr %8, i64 112
  store ptr %9, ptr %3, align 8, !tbaa !947
  br label %_ZNSt6vectorIN7testing14TestPartResultESaIS1_EE9push_backERKS1_.exit

10:                                               ; preds = %2
  tail call void @_ZNSt6vectorIN7testing14TestPartResultESaIS1_EE17_M_realloc_insertIJRKS1_EEEvN9__gnu_cxx17__normal_iteratorIPS1_S3_EEDpOT_(ptr noundef nonnull align 8 dereferenceable(24) %0, ptr %4, ptr noundef nonnull align 8 dereferenceable(112) %1)
  br label %_ZNSt6vectorIN7testing14TestPartResultESaIS1_EE9push_backERKS1_.exit

_ZNSt6vectorIN7testing14TestPartResultESaIS1_EE9push_backERKS1_.exit: ; preds = %7, %10
  ret void
}